target datalayout = "e-m:e-p270:32:32-p271:32:32-p272:64:64-i64:64-i128:128-f80:128-n8:16:32:64-S128"
target triple = "x86_64-unknown-linux-gnu"

%"struct.node::AssertionInfo" = type { ptr, ptr, ptr }
%"class.v8::IndirectHandleBase" = type { ptr }
%"class.node::MemoryRetainer" = type { ptr }
%"struct.std::__detail::_Hash_node_base" = type { ptr }
%"struct.std::__detail::_Prime_rehash_policy" = type { float, i64 }
%"class.node::BaseObject" = type { %"class.node::MemoryRetainer", %"class.v8::Global.48", ptr, ptr }
%"class.v8::Global.48" = type { %"class.v8::PersistentBase.49" }
%"class.v8::PersistentBase.49" = type { %"class.v8::IndirectHandleBase" }
%"class.node::BlobBindingData" = type { %"class.node::SnapshotableObject.base", %"class.std::unordered_map.420" }
%"class.node::SnapshotableObject.base" = type <{ %"class.node::BaseObject", i8 }>
%"class.std::unordered_map.420" = type { %"class.std::_Hashtable.421" }
%"class.std::_Hashtable.421" = type { ptr, i64, %"struct.std::__detail::_Hash_node_base", i64, %"struct.std::__detail::_Prime_rehash_policy", ptr }
%"struct.std::__detail::_Node_iterator" = type { %"struct.std::__detail::_Node_iterator_base" }
%"struct.std::__detail::_Node_iterator_base" = type { ptr }

@_ZZN4node15BlobBindingData18revoke_data_objectERKNSt7__cxx1112basic_stringIcSt11char_traitsIcESaIcEEEE4args = internal constant %"struct.node::AssertionInfo" { ptr @.str.47, ptr @.str.48, ptr @.str.49 }, align 8

; Function Attrs: mustprogress nounwind uwtable
define linkonce_odr dso_local void @_ZNSt8__detail19_Node_iterator_baseISt4pairIKNSt7__cxx1112basic_stringIcSt11char_traitsIcESaIcEEEN4node15BlobBindingData16StoredDataObjectEELb1EEC2EPNS_10_Hash_nodeISC_Lb1EEE(ptr noundef nonnull align 8 dereferenceable(8) %this, ptr noundef %__p) unnamed_addr #4 comdat align 2 {
entry:
  %this.addr = alloca ptr, align 8
  %__p.addr = alloca ptr, align 8
  store ptr %this, ptr %this.addr, align 8
  store ptr %__p, ptr %__p.addr, align 8
  %this1 = load ptr, ptr %this.addr, align 8
  %_M_cur = getelementptr inbounds %"struct.std::__detail::_Node_iterator_base", ptr %this1, i32 0, i32 0
  %0 = load ptr, ptr %__p.addr, align 8
  store ptr %0, ptr %_M_cur, align 8
  ret void
}

; Function Attrs: mustprogress nounwind uwtable
define linkonce_odr dso_local void @_ZNSt8__detail14_Node_iteratorISt4pairIKNSt7__cxx1112basic_stringIcSt11char_traitsIcESaIcEEEN4node15BlobBindingData16StoredDataObjectEELb0ELb1EEC2EPNS_10_Hash_nodeISC_Lb1EEE(ptr noundef nonnull align 8 dereferenceable(8) %this, ptr noundef %__p) unnamed_addr #4 comdat align 2 {
entry:
  %this.addr = alloca ptr, align 8
  %__p.addr = alloca ptr, align 8
  store ptr %this, ptr %this.addr, align 8
  store ptr %__p, ptr %__p.addr, align 8
  %this1 = load ptr, ptr %this.addr, align 8
  %0 = load ptr, ptr %__p.addr, align 8
  call void @_ZNSt8__detail19_Node_iterator_baseISt4pairIKNSt7__cxx1112basic_stringIcSt11char_traitsIcESaIcEEEN4node15BlobBindingData16StoredDataObjectEELb1EEC2EPNS_10_Hash_nodeISC_Lb1EEE(ptr noundef nonnull align 8 dereferenceable(8) %this1, ptr noundef %0) #3
  ret void
}

; Function Attrs: mustprogress nounwind uwtable
define linkonce_odr dso_local noundef i64 @_ZNSt10_HashtableINSt7__cxx1112basic_stringIcSt11char_traitsIcESaIcEEESt4pairIKS5_N4node15BlobBindingData16StoredDataObjectEESaISB_ENSt8__detail10_Select1stESt8equal_toIS5_ESt4hashIS5_ENSD_18_Mod_range_hashingENSD_20_Default_ranged_hashENSD_20_Prime_rehash_policyENSD_17_Hashtable_traitsILb1ELb0ELb1EEEE5eraseERS7_(ptr noundef nonnull align 8 dereferenceable(56) %this, ptr noundef nonnull align 8 dereferenceable(32) %__k) #4 comdat align 2 {
entry:
  %this.addr = alloca ptr, align 8
  %__k.addr = alloca ptr, align 8
  store ptr %this, ptr %this.addr, align 8
  store ptr %__k, ptr %__k.addr, align 8
  %this1 = load ptr, ptr %this.addr, align 8
  %0 = load ptr, ptr %__k.addr, align 8
  %call = call noundef i64 @_ZNSt10_HashtableINSt7__cxx1112basic_stringIcSt11char_traitsIcESaIcEEESt4pairIKS5_N4node15BlobBindingData16StoredDataObjectEESaISB_ENSt8__detail10_Select1stESt8equal_toIS5_ESt4hashIS5_ENSD_18_Mod_range_hashingENSD_20_Default_ranged_hashENSD_20_Prime_rehash_policyENSD_17_Hashtable_traitsILb1ELb0ELb1EEEE8_M_eraseESt17integral_constantIbLb1EERS7_(ptr noundef nonnull align 8 dereferenceable(56) %this1, ptr noundef nonnull align 8 dereferenceable(32) %0)
  ret i64 %call
}

; Function Attrs: mustprogress nounwind uwtable
define linkonce_odr dso_local ptr @_ZNSt10_HashtableINSt7__cxx1112basic_stringIcSt11char_traitsIcESaIcEEESt4pairIKS5_N4node15BlobBindingData16StoredDataObjectEESaISB_ENSt8__detail10_Select1stESt8equal_toIS5_ESt4hashIS5_ENSD_18_Mod_range_hashingENSD_20_Default_ranged_hashENSD_20_Prime_rehash_policyENSD_17_Hashtable_traitsILb1ELb0ELb1EEEE3endEv(ptr noundef nonnull align 8 dereferenceable(56) %this) #4 comdat align 2 {
entry:
  %retval = alloca %"struct.std::__detail::_Node_iterator", align 8
  %this.addr = alloca ptr, align 8
  store ptr %this, ptr %this.addr, align 8
  call void @_ZNSt8__detail14_Node_iteratorISt4pairIKNSt7__cxx1112basic_stringIcSt11char_traitsIcESaIcEEEN4node15BlobBindingData16StoredDataObjectEELb0ELb1EEC2EPNS_10_Hash_nodeISC_Lb1EEE(ptr noundef nonnull align 8 dereferenceable(8) %retval, ptr noundef null) #3
  %coerce.dive = getelementptr inbounds %"struct.std::__detail::_Node_iterator", ptr %retval, i32 0, i32 0
  %coerce.dive2 = getelementptr inbounds %"struct.std::__detail::_Node_iterator_base", ptr %coerce.dive, i32 0, i32 0
  %0 = load ptr, ptr %coerce.dive2, align 8
  ret ptr %0
}

; Function Attrs: mustprogress nounwind uwtable
define linkonce_odr dso_local noundef i64 @_ZNSt13unordered_mapINSt7__cxx1112basic_stringIcSt11char_traitsIcESaIcEEEN4node15BlobBindingData16StoredDataObjectESt4hashIS5_ESt8equal_toIS5_ESaISt4pairIKS5_S8_EEE5eraseERSE_(ptr noundef nonnull align 8 dereferenceable(56) %this, ptr noundef nonnull align 8 dereferenceable(32) %__x) #4 comdat align 2 {
entry:
  %this.addr = alloca ptr, align 8
  %__x.addr = alloca ptr, align 8
  store ptr %this, ptr %this.addr, align 8
  store ptr %__x, ptr %__x.addr, align 8
  %this1 = load ptr, ptr %this.addr, align 8
  %_M_h = getelementptr inbounds %"class.std::unordered_map.420", ptr %this1, i32 0, i32 0
  %0 = load ptr, ptr %__x.addr, align 8
  %call = call noundef i64 @_ZNSt10_HashtableINSt7__cxx1112basic_stringIcSt11char_traitsIcESaIcEEESt4pairIKS5_N4node15BlobBindingData16StoredDataObjectEESaISB_ENSt8__detail10_Select1stESt8equal_toIS5_ESt4hashIS5_ENSD_18_Mod_range_hashingENSD_20_Default_ranged_hashENSD_20_Prime_rehash_policyENSD_17_Hashtable_traitsILb1ELb0ELb1EEEE5eraseERS7_(ptr noundef nonnull align 8 dereferenceable(56) %_M_h, ptr noundef nonnull align 8 dereferenceable(32) %0)
  ret i64 %call
}

; Function Attrs: mustprogress nounwind uwtable
define linkonce_odr dso_local noundef zeroext i1 @_ZNSt8__detaileqERKNS_19_Node_iterator_baseISt4pairIKNSt7__cxx1112basic_stringIcSt11char_traitsIcESaIcEEEN4node15BlobBindingData16StoredDataObjectEELb1EEESF_(ptr noundef nonnull align 8 dereferenceable(8) %__x, ptr noundef nonnull align 8 dereferenceable(8) %__y) #4 comdat {
entry:
  %__x.addr = alloca ptr, align 8
  %__y.addr = alloca ptr, align 8
  store ptr %__x, ptr %__x.addr, align 8
  store ptr %__y, ptr %__y.addr, align 8
  %0 = load ptr, ptr %__x.addr, align 8
  %_M_cur = getelementptr inbounds %"struct.std::__detail::_Node_iterator_base", ptr %0, i32 0, i32 0
  %1 = load ptr, ptr %_M_cur, align 8
  %2 = load ptr, ptr %__y.addr, align 8
  %_M_cur1 = getelementptr inbounds %"struct.std::__detail::_Node_iterator_base", ptr %2, i32 0, i32 0
  %3 = load ptr, ptr %_M_cur1, align 8
  %cmp = icmp eq ptr %1, %3
  ret i1 %cmp
}

; Function Attrs: mustprogress nounwind uwtable
define linkonce_odr dso_local ptr @_ZNSt13unordered_mapINSt7__cxx1112basic_stringIcSt11char_traitsIcESaIcEEEN4node15BlobBindingData16StoredDataObjectESt4hashIS5_ESt8equal_toIS5_ESaISt4pairIKS5_S8_EEE3endEv(ptr noundef nonnull align 8 dereferenceable(56) %this) #4 comdat align 2 {
entry:
  %retval = alloca %"struct.std::__detail::_Node_iterator", align 8
  %this.addr = alloca ptr, align 8
  store ptr %this, ptr %this.addr, align 8
  %this1 = load ptr, ptr %this.addr, align 8
  %_M_h = getelementptr inbounds %"class.std::unordered_map.420", ptr %this1, i32 0, i32 0
  %call = call ptr @_ZNSt10_HashtableINSt7__cxx1112basic_stringIcSt11char_traitsIcESaIcEEESt4pairIKS5_N4node15BlobBindingData16StoredDataObjectEESaISB_ENSt8__detail10_Select1stESt8equal_toIS5_ESt4hashIS5_ENSD_18_Mod_range_hashingENSD_20_Default_ranged_hashENSD_20_Prime_rehash_policyENSD_17_Hashtable_traitsILb1ELb0ELb1EEEE3endEv(ptr noundef nonnull align 8 dereferenceable(56) %_M_h) #3
  %coerce.dive = getelementptr inbounds %"struct.std::__detail::_Node_iterator", ptr %retval, i32 0, i32 0
  %coerce.dive2 = getelementptr inbounds %"struct.std::__detail::_Node_iterator_base", ptr %coerce.dive, i32 0, i32 0
  store ptr %call, ptr %coerce.dive2, align 8
  %coerce.dive3 = getelementptr inbounds %"struct.std::__detail::_Node_iterator", ptr %retval, i32 0, i32 0
  %coerce.dive4 = getelementptr inbounds %"struct.std::__detail::_Node_iterator_base", ptr %coerce.dive3, i32 0, i32 0
  %0 = load ptr, ptr %coerce.dive4, align 8
  ret ptr %0
}

; Function Attrs: mustprogress nounwind uwtable
define linkonce_odr dso_local ptr @_ZNSt13unordered_mapINSt7__cxx1112basic_stringIcSt11char_traitsIcESaIcEEEN4node15BlobBindingData16StoredDataObjectESt4hashIS5_ESt8equal_toIS5_ESaISt4pairIKS5_S8_EEE4findERSE_(ptr noundef nonnull align 8 dereferenceable(56) %this, ptr noundef nonnull align 8 dereferenceable(32) %__x) #4 comdat align 2 {
entry:
  %retval = alloca %"struct.std::__detail::_Node_iterator", align 8
  %this.addr = alloca ptr, align 8
  %__x.addr = alloca ptr, align 8
  store ptr %this, ptr %this.addr, align 8
  store ptr %__x, ptr %__x.addr, align 8
  %this1 = load ptr, ptr %this.addr, align 8
  %_M_h = getelementptr inbounds %"class.std::unordered_map.420", ptr %this1, i32 0, i32 0
  %0 = load ptr, ptr %__x.addr, align 8
  %call = call ptr @_ZNSt10_HashtableINSt7__cxx1112basic_stringIcSt11char_traitsIcESaIcEEESt4pairIKS5_N4node15BlobBindingData16StoredDataObjectEESaISB_ENSt8__detail10_Select1stESt8equal_toIS5_ESt4hashIS5_ENSD_18_Mod_range_hashingENSD_20_Default_ranged_hashENSD_20_Prime_rehash_policyENSD_17_Hashtable_traitsILb1ELb0ELb1EEEE4findERS7_(ptr noundef nonnull align 8 dereferenceable(56) %_M_h, ptr noundef nonnull align 8 dereferenceable(32) %0)
  %coerce.dive = getelementptr inbounds %"struct.std::__detail::_Node_iterator", ptr %retval, i32 0, i32 0
  %coerce.dive2 = getelementptr inbounds %"struct.std::__detail::_Node_iterator_base", ptr %coerce.dive, i32 0, i32 0
  store ptr %call, ptr %coerce.dive2, align 8
  %coerce.dive3 = getelementptr inbounds %"struct.std::__detail::_Node_iterator", ptr %retval, i32 0, i32 0
  %coerce.dive4 = getelementptr inbounds %"struct.std::__detail::_Node_iterator_base", ptr %coerce.dive3, i32 0, i32 0
  %1 = load ptr, ptr %coerce.dive4, align 8
  ret ptr %1
}

; Function Attrs: mustprogress nounwind uwtable
define dso_local void @_ZN4node15BlobBindingData18revoke_data_objectERKNSt7__cxx1112basic_stringIcSt11char_traitsIcESaIcEEE(ptr noundef nonnull align 8 dereferenceable(96) %this, ptr noundef nonnull align 8 dereferenceable(32) %uuid) #4 align 2 {
entry:
  %this.addr = alloca ptr, align 8
  %uuid.addr = alloca ptr, align 8
  %ref.tmp = alloca %"struct.std::__detail::_Node_iterator", align 8
  %ref.tmp3 = alloca %"struct.std::__detail::_Node_iterator", align 8
  %ref.tmp11 = alloca %"struct.std::__detail::_Node_iterator", align 8
  %ref.tmp16 = alloca %"struct.std::__detail::_Node_iterator", align 8
  store ptr %this, ptr %this.addr, align 8
  store ptr %uuid, ptr %uuid.addr, align 8
  %this1 = load ptr, ptr %this.addr, align 8
  %data_objects_ = getelementptr inbounds %"class.node::BlobBindingData", ptr %this1, i32 0, i32 1
  %0 = load ptr, ptr %uuid.addr, align 8
  %call = call ptr @_ZNSt13unordered_mapINSt7__cxx1112basic_stringIcSt11char_traitsIcESaIcEEEN4node15BlobBindingData16StoredDataObjectESt4hashIS5_ESt8equal_toIS5_ESaISt4pairIKS5_S8_EEE4findERSE_(ptr noundef nonnull align 8 dereferenceable(56) %data_objects_, ptr noundef nonnull align 8 dereferenceable(32) %0)
  %coerce.dive = getelementptr inbounds %"struct.std::__detail::_Node_iterator", ptr %ref.tmp, i32 0, i32 0
  %coerce.dive2 = getelementptr inbounds %"struct.std::__detail::_Node_iterator_base", ptr %coerce.dive, i32 0, i32 0
  store ptr %call, ptr %coerce.dive2, align 8
  %data_objects_4 = getelementptr inbounds %"class.node::BlobBindingData", ptr %this1, i32 0, i32 1
  %call5 = call ptr @_ZNSt13unordered_mapINSt7__cxx1112basic_stringIcSt11char_traitsIcESaIcEEEN4node15BlobBindingData16StoredDataObjectESt4hashIS5_ESt8equal_toIS5_ESaISt4pairIKS5_S8_EEE3endEv(ptr noundef nonnull align 8 dereferenceable(56) %data_objects_4) #3
  %coerce.dive6 = getelementptr inbounds %"struct.std::__detail::_Node_iterator", ptr %ref.tmp3, i32 0, i32 0
  %coerce.dive7 = getelementptr inbounds %"struct.std::__detail::_Node_iterator_base", ptr %coerce.dive6, i32 0, i32 0
  store ptr %call5, ptr %coerce.dive7, align 8
  %call8 = call noundef zeroext i1 @_ZNSt8__detaileqERKNS_19_Node_iterator_baseISt4pairIKNSt7__cxx1112basic_stringIcSt11char_traitsIcESaIcEEEN4node15BlobBindingData16StoredDataObjectEELb1EEESF_(ptr noundef nonnull align 8 dereferenceable(8) %ref.tmp, ptr noundef nonnull align 8 dereferenceable(8) %ref.tmp3) #3
  br i1 %call8, label %if.then, label %if.end

if.then:                                          ; preds = %entry
  br label %do.end27

if.end:                                           ; preds = %entry
  %data_objects_9 = getelementptr inbounds %"class.node::BlobBindingData", ptr %this1, i32 0, i32 1
  %1 = load ptr, ptr %uuid.addr, align 8
  %call10 = call noundef i64 @_ZNSt13unordered_mapINSt7__cxx1112basic_stringIcSt11char_traitsIcESaIcEEEN4node15BlobBindingData16StoredDataObjectESt4hashIS5_ESt8equal_toIS5_ESaISt4pairIKS5_S8_EEE5eraseERSE_(ptr noundef nonnull align 8 dereferenceable(56) %data_objects_9, ptr noundef nonnull align 8 dereferenceable(32) %1)
  br label %do.body

do.body:                                          ; preds = %if.end
  %data_objects_12 = getelementptr inbounds %"class.node::BlobBindingData", ptr %this1, i32 0, i32 1
  %2 = load ptr, ptr %uuid.addr, align 8
  %call13 = call ptr @_ZNSt13unordered_mapINSt7__cxx1112basic_stringIcSt11char_traitsIcESaIcEEEN4node15BlobBindingData16StoredDataObjectESt4hashIS5_ESt8equal_toIS5_ESaISt4pairIKS5_S8_EEE4findERSE_(ptr noundef nonnull align 8 dereferenceable(56) %data_objects_12, ptr noundef nonnull align 8 dereferenceable(32) %2)
  %coerce.dive14 = getelementptr inbounds %"struct.std::__detail::_Node_iterator", ptr %ref.tmp11, i32 0, i32 0
  %coerce.dive15 = getelementptr inbounds %"struct.std::__detail::_Node_iterator_base", ptr %coerce.dive14, i32 0, i32 0
  store ptr %call13, ptr %coerce.dive15, align 8
  %data_objects_17 = getelementptr inbounds %"class.node::BlobBindingData", ptr %this1, i32 0, i32 1
  %call18 = call ptr @_ZNSt13unordered_mapINSt7__cxx1112basic_stringIcSt11char_traitsIcESaIcEEEN4node15BlobBindingData16StoredDataObjectESt4hashIS5_ESt8equal_toIS5_ESaISt4pairIKS5_S8_EEE3endEv(ptr noundef nonnull align 8 dereferenceable(56) %data_objects_17) #3
  %coerce.dive19 = getelementptr inbounds %"struct.std::__detail::_Node_iterator", ptr %ref.tmp16, i32 0, i32 0
  %coerce.dive20 = getelementptr inbounds %"struct.std::__detail::_Node_iterator_base", ptr %coerce.dive19, i32 0, i32 0
  store ptr %call18, ptr %coerce.dive20, align 8
  %call21 = call noundef zeroext i1 @_ZNSt8__detaileqERKNS_19_Node_iterator_baseISt4pairIKNSt7__cxx1112basic_stringIcSt11char_traitsIcESaIcEEEN4node15BlobBindingData16StoredDataObjectEELb1EEESF_(ptr noundef nonnull align 8 dereferenceable(8) %ref.tmp11, ptr noundef nonnull align 8 dereferenceable(8) %ref.tmp16) #3
  %lnot = xor i1 %call21, true
  %lnot22 = xor i1 %lnot, true
  %lnot23 = xor i1 %lnot22, true
  br i1 %lnot23, label %if.then24, label %if.end26

if.then24:                                        ; preds = %do.body
  br label %do.body25

do.body25:                                        ; preds = %if.then24
  call void @_ZN4node6AssertERKNS_13AssertionInfoE(ptr noundef nonnull align 8 dereferenceable(24) @_ZZN4node15BlobBindingData18revoke_data_objectERKNSt7__cxx1112basic_stringIcSt11char_traitsIcESaIcEEEE4args)
  call void @abort() #15
  unreachable

do.end:                                           ; No predecessors!
  br label %if.end26

if.end26:                                         ; preds = %do.end, %do.body
  br label %do.end27

do.end27:                                         ; preds = %if.end26, %if.then
  ret void
}