; Function Attrs: mustprogress nounwind uwtable
define dso_local void @_ZN4node15BlobBindingData18revoke_data_objectERKNSt7__cxx1112basic_stringIcSt11char_traitsIcESaIcEEE(ptr noundef nonnull align 8 dereferenceable(96) %this, ptr noundef nonnull align 8 dereferenceable(32) %uuid) local_unnamed_addr #3 align 2 {
entry:
  %data_objects_ = getelementptr inbounds i8, ptr %this, i64 40
  %call.i = tail call ptr @_ZNSt10_HashtableINSt7__cxx1112basic_stringIcSt11char_traitsIcESaIcEEESt4pairIKS5_N4node15BlobBindingData16StoredDataObjectEESaISB_ENSt8__detail10_Select1stESt8equal_toIS5_ESt4hashIS5_ENSD_18_Mod_range_hashingENSD_20_Default_ranged_hashENSD_20_Prime_rehash_policyENSD_17_Hashtable_traitsILb1ELb0ELb1EEEE4findERS7_(ptr noundef nonnull align 8 dereferenceable(56) %data_objects_, ptr noundef nonnull align 8 dereferenceable(32) %uuid)
  %cmp.i = icmp eq ptr %call.i, null
  br i1 %cmp.i, label %do.end27, label %if.end

if.end:                                           ; preds = %entry
  %call.i.i = tail call noundef i64 @_ZNSt10_HashtableINSt7__cxx1112basic_stringIcSt11char_traitsIcESaIcEEESt4pairIKS5_N4node15BlobBindingData16StoredDataObjectEESaISB_ENSt8__detail10_Select1stESt8equal_toIS5_ESt4hashIS5_ENSD_18_Mod_range_hashingENSD_20_Default_ranged_hashENSD_20_Prime_rehash_policyENSD_17_Hashtable_traitsILb1ELb0ELb1EEEE8_M_eraseESt17integral_constantIbLb1EERS7_(ptr noundef nonnull align 8 dereferenceable(56) %data_objects_, ptr noundef nonnull align 8 dereferenceable(32) %uuid)
  %call.i3 = tail call ptr @_ZNSt10_HashtableINSt7__cxx1112basic_stringIcSt11char_traitsIcESaIcEEESt4pairIKS5_N4node15BlobBindingData16StoredDataObjectEESaISB_ENSt8__detail10_Select1stESt8equal_toIS5_ESt4hashIS5_ENSD_18_Mod_range_hashingENSD_20_Default_ranged_hashENSD_20_Prime_rehash_policyENSD_17_Hashtable_traitsILb1ELb0ELb1EEEE4findERS7_(ptr noundef nonnull align 8 dereferenceable(56) %data_objects_, ptr noundef nonnull align 8 dereferenceable(32) %uuid)
  %cmp.i4 = icmp eq ptr %call.i3, null
  br i1 %cmp.i4, label %do.end27, label %do.body25

do.body25:                                        ; preds = %if.end
  tail call void @_ZN4node6AssertERKNS_13AssertionInfoE(ptr noundef nonnull align 8 dereferenceable(24) @_ZZN4node15BlobBindingData18revoke_data_objectERKNSt7__cxx1112basic_stringIcSt11char_traitsIcESaIcEEEE4args) #22
  tail call void @abort() #23
  unreachable

do.end27:                                         ; preds = %if.end, %entry
  ret void
}